; ModuleID = 'source-C-CXX/12/1318.c'
source_filename = "source-C-CXX/12/1318.c"
target datalayout = "e-m:e-p270:32:32-p271:32:32-p272:64:64-i64:64-f80:128-n8:16:32:64-S128"
target triple = "x86_64-pc-linux-gnu"

@.str = private unnamed_addr constant [3 x i8] c"%d\00", align 1
@.str.1 = private unnamed_addr constant [4 x i8] c" %d\00", align 1

; Function Attrs: nofree nounwind sspstrong uwtable
define dso_local i32 @main() local_unnamed_addr #0 {
  %1 = alloca i32, align 4
  %2 = alloca [20000 x i32], align 16
  %3 = alloca i32, align 4
  %4 = bitcast i32* %1 to i8*
  call void @llvm.lifetime.start.p0i8(i64 4, i8* nonnull %4) #3
  %5 = bitcast [20000 x i32]* %2 to i8*
  call void @llvm.lifetime.start.p0i8(i64 80000, i8* nonnull %5) #3
  %6 = call i32 (i8*, ...) @__isoc99_scanf(i8* getelementptr inbounds ([3 x i8], [3 x i8]* @.str, i64 0, i64 0), i32* nonnull %1)
  %7 = load i32, i32* %1, align 4, !tbaa !5
  %8 = icmp sgt i32 %7, 0
  br i1 %8, label %15, label %62

9:                                                ; preds = %15
  %10 = icmp sgt i32 %20, 0
  br i1 %10, label %11, label %62

11:                                               ; preds = %9
  %12 = zext i32 %20 to i64
  %13 = zext i32 %20 to i64
  %14 = add nsw i64 %13, -2
  br label %27

15:                                               ; preds = %0, %15
  %16 = phi i64 [ %19, %15 ], [ 0, %0 ]
  %17 = getelementptr inbounds [20000 x i32], [20000 x i32]* %2, i64 0, i64 %16
  %18 = call i32 (i8*, ...) @__isoc99_scanf(i8* getelementptr inbounds ([3 x i8], [3 x i8]* @.str, i64 0, i64 0), i32* nonnull %17)
  %19 = add nuw nsw i64 %16, 1
  %20 = load i32, i32* %1, align 4, !tbaa !5
  %21 = sext i32 %20 to i64
  %22 = icmp slt i64 %19, %21
  br i1 %22, label %15, label %9, !llvm.loop !9

23:                                               ; preds = %46, %87, %27
  %24 = add nuw nsw i64 %29, 1
  %25 = icmp eq i64 %30, %13
  br i1 %25, label %26, label %27, !llvm.loop !11

26:                                               ; preds = %23
  br i1 %10, label %65, label %62

27:                                               ; preds = %11, %23
  %28 = phi i64 [ 0, %11 ], [ %30, %23 ]
  %29 = phi i64 [ 1, %11 ], [ %24, %23 ]
  %30 = add nuw nsw i64 %28, 1
  %31 = getelementptr inbounds [20000 x i32], [20000 x i32]* %2, i64 0, i64 %28
  %32 = icmp ult i64 %30, %12
  br i1 %32, label %33, label %23

33:                                               ; preds = %27
  %34 = xor i64 %28, -1
  %35 = add nsw i64 %34, %13
  %36 = and i64 %35, 1
  %37 = icmp eq i64 %36, 0
  br i1 %37, label %46, label %38

38:                                               ; preds = %33
  %39 = load i32, i32* %31, align 4, !tbaa !5
  %40 = getelementptr inbounds [20000 x i32], [20000 x i32]* %2, i64 0, i64 %29
  %41 = load i32, i32* %40, align 4, !tbaa !5
  %42 = icmp eq i32 %39, %41
  br i1 %42, label %43, label %44

43:                                               ; preds = %38
  store i32 0, i32* %40, align 4, !tbaa !5
  br label %44

44:                                               ; preds = %43, %38
  %45 = add nuw nsw i64 %29, 1
  br label %46

46:                                               ; preds = %44, %33
  %47 = phi i64 [ %45, %44 ], [ %29, %33 ]
  %48 = icmp eq i64 %14, %28
  br i1 %48, label %23, label %49

49:                                               ; preds = %46, %87
  %50 = phi i64 [ %88, %87 ], [ %47, %46 ]
  %51 = load i32, i32* %31, align 4, !tbaa !5
  %52 = getelementptr inbounds [20000 x i32], [20000 x i32]* %2, i64 0, i64 %50
  %53 = load i32, i32* %52, align 4, !tbaa !5
  %54 = icmp eq i32 %51, %53
  br i1 %54, label %55, label %56

55:                                               ; preds = %49
  store i32 0, i32* %52, align 4, !tbaa !5
  br label %56

56:                                               ; preds = %49, %55
  %57 = add nuw nsw i64 %50, 1
  %58 = load i32, i32* %31, align 4, !tbaa !5
  %59 = getelementptr inbounds [20000 x i32], [20000 x i32]* %2, i64 0, i64 %57
  %60 = load i32, i32* %59, align 4, !tbaa !5
  %61 = icmp eq i32 %58, %60
  br i1 %61, label %86, label %87

62:                                               ; preds = %80, %9, %0, %26
  %63 = bitcast i32* %3 to i8*
  call void @llvm.lifetime.start.p0i8(i64 4, i8* nonnull %63) #3
  %64 = call i32 (i8*, ...) @__isoc99_scanf(i8* getelementptr inbounds ([3 x i8], [3 x i8]* @.str, i64 0, i64 0), i32* nonnull %3)
  call void @llvm.lifetime.end.p0i8(i64 4, i8* nonnull %63) #3
  call void @llvm.lifetime.end.p0i8(i64 80000, i8* nonnull %5) #3
  call void @llvm.lifetime.end.p0i8(i64 4, i8* nonnull %4) #3
  ret i32 0

65:                                               ; preds = %26, %80
  %66 = phi i64 [ %82, %80 ], [ 0, %26 ]
  %67 = phi i32 [ %81, %80 ], [ 0, %26 ]
  switch i32 %67, label %80 [
    i32 0, label %68
    i32 1, label %74
  ]

68:                                               ; preds = %65
  %69 = getelementptr inbounds [20000 x i32], [20000 x i32]* %2, i64 0, i64 %66
  %70 = load i32, i32* %69, align 4, !tbaa !5
  %71 = icmp eq i32 %70, 0
  br i1 %71, label %80, label %72

72:                                               ; preds = %68
  %73 = call i32 (i8*, ...) @printf(i8* nonnull dereferenceable(1) getelementptr inbounds ([3 x i8], [3 x i8]* @.str, i64 0, i64 0), i32 %70)
  br label %80

74:                                               ; preds = %65
  %75 = getelementptr inbounds [20000 x i32], [20000 x i32]* %2, i64 0, i64 %66
  %76 = load i32, i32* %75, align 4, !tbaa !5
  %77 = icmp eq i32 %76, 0
  br i1 %77, label %80, label %78

78:                                               ; preds = %74
  %79 = call i32 (i8*, ...) @printf(i8* nonnull dereferenceable(1) getelementptr inbounds ([4 x i8], [4 x i8]* @.str.1, i64 0, i64 0), i32 %76)
  br label %80

80:                                               ; preds = %68, %65, %72, %78, %74
  %81 = phi i32 [ 1, %72 ], [ 1, %78 ], [ 1, %74 ], [ 0, %65 ], [ 0, %68 ]
  %82 = add nuw nsw i64 %66, 1
  %83 = load i32, i32* %1, align 4, !tbaa !5
  %84 = sext i32 %83 to i64
  %85 = icmp slt i64 %82, %84
  br i1 %85, label %65, label %62, !llvm.loop !12

86:                                               ; preds = %56
  store i32 0, i32* %59, align 4, !tbaa !5
  br label %87

87:                                               ; preds = %86, %56
  %88 = add nuw nsw i64 %50, 2
  %89 = icmp eq i64 %88, %13
  br i1 %89, label %23, label %49, !llvm.loop !13
}

; Function Attrs: argmemonly mustprogress nofree nosync nounwind willreturn
declare void @llvm.lifetime.start.p0i8(i64 immarg, i8* nocapture) #1

; Function Attrs: nofree nounwind
declare noundef i32 @__isoc99_scanf(i8* nocapture noundef readonly, ...) local_unnamed_addr #2

; Function Attrs: argmemonly mustprogress nofree nosync nounwind willreturn
declare void @llvm.lifetime.end.p0i8(i64 immarg, i8* nocapture) #1

; Function Attrs: nofree nounwind
declare noundef i32 @printf(i8* nocapture noundef readonly, ...) local_unnamed_addr #2


!llvm.module.flags = !{!0, !1, !2, !3}
!llvm.ident = !{!4}

!0 = !{i32 1, !"wchar_size", i32 4}
!1 = !{i32 7, !"PIC Level", i32 2}
!2 = !{i32 7, !"PIE Level", i32 2}
!3 = !{i32 7, !"uwtable", i32 1}
!4 = !{!"clang version 13.0.0"}
!5 = !{!6, !6, i64 0}
!6 = !{!"int", !7, i64 0}
!7 = !{!"omnipotent char", !8, i64 0}
!8 = !{!"Simple C/C++ TBAA"}
!9 = distinct !{!9, !10}
!10 = !{!"llvm.loop.mustprogress"}
!11 = distinct !{!11, !10}
!12 = distinct !{!12, !10}
!13 = distinct !{!13, !10}
